; Function Attrs: mustprogress uwtable
define hidden noundef i64 @_ZNK17opencv_tensorflow12OpDef_ArgDef12ByteSizeLongEv(ptr noundef nonnull align 8 dereferenceable(72) %0) unnamed_addr #3 align 2 {
  %2 = getelementptr inbounds nuw i8, ptr %0, i64 16
  %3 = load ptr, ptr %2, align 8, !tbaa !13
  %4 = ptrtoint ptr %3 to i64
  %5 = and i64 %4, -2
  %6 = inttoptr i64 %5 to ptr
  %7 = getelementptr inbounds nuw i8, ptr %6, i64 8
  %8 = load i64, ptr %7, align 8, !tbaa !20
  %9 = icmp eq i64 %8, 0
  br i1 %9, label %21, label %10

10:                                               ; preds = %1
  %11 = trunc i64 %8 to i32
  %12 = or i32 %11, 1
  %13 = tail call range(i32 0, 33) i32 @llvm.ctlz.i32(i32 %12, i1 true)
  %14 = xor i32 %13, 31
  %15 = mul nuw nsw i32 %14, 9
  %16 = add nuw nsw i32 %15, 73
  %17 = lshr i32 %16, 6
  %18 = zext nneg i32 %17 to i64
  %19 = add i64 %8, 1
  %20 = add i64 %19, %18
  br label %21

21:                                               ; preds = %10, %1
  %.0 = phi i64 [ 0, %1 ], [ %20, %10 ]
  %22 = getelementptr inbounds nuw i8, ptr %0, i64 24
  %23 = load ptr, ptr %22, align 8, !tbaa !13
  %24 = ptrtoint ptr %23 to i64
  %25 = and i64 %24, -2
  %26 = inttoptr i64 %25 to ptr
  %27 = getelementptr inbounds nuw i8, ptr %26, i64 8
  %28 = load i64, ptr %27, align 8, !tbaa !20
  %29 = icmp eq i64 %28, 0
  br i1 %29, label %42, label %30

30:                                               ; preds = %21
  %31 = trunc i64 %28 to i32
  %32 = or i32 %31, 1
  %33 = tail call range(i32 0, 33) i32 @llvm.ctlz.i32(i32 %32, i1 true)
  %34 = xor i32 %33, 31
  %35 = mul nuw nsw i32 %34, 9
  %36 = add nuw nsw i32 %35, 73
  %37 = lshr i32 %36, 6
  %38 = zext nneg i32 %37 to i64
  %39 = add i64 %.0, 1
  %40 = add i64 %39, %28
  %41 = add i64 %40, %38
  br label %42

42:                                               ; preds = %30, %21
  %.1 = phi i64 [ %.0, %21 ], [ %41, %30 ]
  %43 = getelementptr inbounds nuw i8, ptr %0, i64 32
  %44 = load ptr, ptr %43, align 8, !tbaa !13
  %45 = ptrtoint ptr %44 to i64
  %46 = and i64 %45, -2
  %47 = inttoptr i64 %46 to ptr
  %48 = getelementptr inbounds nuw i8, ptr %47, i64 8
  %49 = load i64, ptr %48, align 8, !tbaa !20
  %50 = icmp eq i64 %49, 0
  br i1 %50, label %63, label %51

51:                                               ; preds = %42
  %52 = trunc i64 %49 to i32
  %53 = or i32 %52, 1
  %54 = tail call range(i32 0, 33) i32 @llvm.ctlz.i32(i32 %53, i1 true)
  %55 = xor i32 %54, 31
  %56 = mul nuw nsw i32 %55, 9
  %57 = add nuw nsw i32 %56, 73
  %58 = lshr i32 %57, 6
  %59 = zext nneg i32 %58 to i64
  %60 = add i64 %.1, 1
  %61 = add i64 %60, %49
  %62 = add i64 %61, %59
  br label %63

63:                                               ; preds = %51, %42
  %.2 = phi i64 [ %.1, %42 ], [ %62, %51 ]
  %64 = getelementptr inbounds nuw i8, ptr %0, i64 40
  %65 = load ptr, ptr %64, align 8, !tbaa !13
  %66 = ptrtoint ptr %65 to i64
  %67 = and i64 %66, -2
  %68 = inttoptr i64 %67 to ptr
  %69 = getelementptr inbounds nuw i8, ptr %68, i64 8
  %70 = load i64, ptr %69, align 8, !tbaa !20
  %71 = icmp eq i64 %70, 0
  br i1 %71, label %84, label %72

72:                                               ; preds = %63
  %73 = trunc i64 %70 to i32
  %74 = or i32 %73, 1
  %75 = tail call range(i32 0, 33) i32 @llvm.ctlz.i32(i32 %74, i1 true)
  %76 = xor i32 %75, 31
  %77 = mul nuw nsw i32 %76, 9
  %78 = add nuw nsw i32 %77, 73
  %79 = lshr i32 %78, 6
  %80 = zext nneg i32 %79 to i64
  %81 = add i64 %.2, 1
  %82 = add i64 %81, %70
  %83 = add i64 %82, %80
  br label %84

84:                                               ; preds = %72, %63
  %.3 = phi i64 [ %.2, %63 ], [ %83, %72 ]
  %85 = getelementptr inbounds nuw i8, ptr %0, i64 48
  %86 = load ptr, ptr %85, align 8, !tbaa !13
  %87 = ptrtoint ptr %86 to i64
  %88 = and i64 %87, -2
  %89 = inttoptr i64 %88 to ptr
  %90 = getelementptr inbounds nuw i8, ptr %89, i64 8
  %91 = load i64, ptr %90, align 8, !tbaa !20
  %92 = icmp eq i64 %91, 0
  br i1 %92, label %105, label %93

93:                                               ; preds = %84
  %94 = trunc i64 %91 to i32
  %95 = or i32 %94, 1
  %96 = tail call range(i32 0, 33) i32 @llvm.ctlz.i32(i32 %95, i1 true)
  %97 = xor i32 %96, 31
  %98 = mul nuw nsw i32 %97, 9
  %99 = add nuw nsw i32 %98, 73
  %100 = lshr i32 %99, 6
  %101 = zext nneg i32 %100 to i64
  %102 = add i64 %.3, 1
  %103 = add i64 %102, %91
  %104 = add i64 %103, %101
  br label %105

105:                                              ; preds = %93, %84
  %.4 = phi i64 [ %.3, %84 ], [ %104, %93 ]
  %106 = getelementptr inbounds nuw i8, ptr %0, i64 56
  %107 = load i32, ptr %106, align 8, !tbaa !37
  %.not = icmp eq i32 %107, 0
  br i1 %.not, label %118, label %108

108:                                              ; preds = %105
  %109 = or i32 %107, 1
  %110 = sext i32 %109 to i64
  %111 = tail call range(i64 0, 65) i64 @llvm.ctlz.i64(i64 %110, i1 true)
  %112 = xor i64 %111, 63
  %113 = mul nuw nsw i64 %112, 9
  %114 = add nuw nsw i64 %113, 73
  %115 = lshr i64 %114, 6
  %116 = add i64 %.4, 1
  %117 = add i64 %116, %115
  br label %118

118:                                              ; preds = %108, %105
  %.5 = phi i64 [ %117, %108 ], [ %.4, %105 ]
  %119 = getelementptr inbounds nuw i8, ptr %0, i64 60
  %120 = load i8, ptr %119, align 4, !tbaa !45, !range !53, !noundef !54
  %121 = trunc nuw i8 %120 to i1
  %122 = add i64 %.5, 3
  %spec.select = select i1 %121, i64 %122, i64 %.5
  %123 = getelementptr inbounds nuw i8, ptr %0, i64 64
  %124 = tail call noundef i64 @_ZNK6google8protobuf7Message29MaybeComputeUnknownFieldsSizeEmPNS0_8internal10CachedSizeE(ptr noundef nonnull align 8 dereferenceable(16) %0, i64 noundef %spec.select, ptr noundef nonnull %123)
  ret i64 %124
}